target datalayout = "e-m:e-p270:32:32-p271:32:32-p272:64:64-i64:64-i128:128-f80:128-n8:16:32:64-S128"
target triple = "x86_64-pc-linux-gnu"

%"class.cv::tinyxml2::StrPair" = type { i32, ptr, ptr }
%"class.cv::tinyxml2::XMLAttribute" = type { ptr, %"class.cv::tinyxml2::StrPair", %"class.cv::tinyxml2::StrPair", ptr, ptr }

; Function Attrs: mustprogress nounwind uwtable
define hidden void @_ZN2cv8tinyxml27StrPair5ResetEv(ptr noundef nonnull align 8 dereferenceable(24) %0) #0 align 2 {
  %2 = alloca ptr, align 8
  store ptr %0, ptr %2, align 8, !tbaa !3
  %3 = load ptr, ptr %2, align 8
  %4 = getelementptr inbounds nuw %"class.cv::tinyxml2::StrPair", ptr %3, i32 0, i32 0
  %5 = load i32, ptr %4, align 8, !tbaa !8
  %6 = and i32 %5, 512
  %7 = icmp ne i32 %6, 0
  br i1 %7, label %8, label %14

8:                                                ; preds = %1
  %9 = getelementptr inbounds nuw %"class.cv::tinyxml2::StrPair", ptr %3, i32 0, i32 1
  %10 = load ptr, ptr %9, align 8, !tbaa !12
  %11 = icmp eq ptr %10, null
  br i1 %11, label %13, label %12

12:                                               ; preds = %8
  call void @_ZdaPv(ptr noundef %10) #16
  br label %13

13:                                               ; preds = %12, %8
  br label %14

14:                                               ; preds = %13, %1
  %15 = getelementptr inbounds nuw %"class.cv::tinyxml2::StrPair", ptr %3, i32 0, i32 0
  store i32 0, ptr %15, align 8, !tbaa !8
  %16 = getelementptr inbounds nuw %"class.cv::tinyxml2::StrPair", ptr %3, i32 0, i32 1
  store ptr null, ptr %16, align 8, !tbaa !12
  %17 = getelementptr inbounds nuw %"class.cv::tinyxml2::StrPair", ptr %3, i32 0, i32 2
  store ptr null, ptr %17, align 8, !tbaa !13
  ret void
}

; Function Attrs: mustprogress nounwind uwtable
define linkonce_odr hidden void @_ZN2cv8tinyxml27StrPair3SetEPcS2_i(ptr noundef nonnull align 8 dereferenceable(24) %0, ptr noundef %1, ptr noundef %2, i32 noundef %3) #0 comdat align 2 {
  %5 = alloca ptr, align 8
  %6 = alloca ptr, align 8
  %7 = alloca ptr, align 8
  %8 = alloca i32, align 4
  store ptr %0, ptr %5, align 8, !tbaa !3
  store ptr %1, ptr %6, align 8, !tbaa !14
  store ptr %2, ptr %7, align 8, !tbaa !14
  store i32 %3, ptr %8, align 4, !tbaa !15
  %9 = load ptr, ptr %5, align 8
  call void @_ZN2cv8tinyxml27StrPair5ResetEv(ptr noundef nonnull align 8 dereferenceable(24) %9)
  %10 = load ptr, ptr %6, align 8, !tbaa !14
  %11 = getelementptr inbounds nuw %"class.cv::tinyxml2::StrPair", ptr %9, i32 0, i32 1
  store ptr %10, ptr %11, align 8, !tbaa !12
  %12 = load ptr, ptr %7, align 8, !tbaa !14
  %13 = getelementptr inbounds nuw %"class.cv::tinyxml2::StrPair", ptr %9, i32 0, i32 2
  store ptr %12, ptr %13, align 8, !tbaa !13
  %14 = load i32, ptr %8, align 4, !tbaa !15
  %15 = or i32 %14, 256
  %16 = getelementptr inbounds nuw %"class.cv::tinyxml2::StrPair", ptr %9, i32 0, i32 0
  store i32 %15, ptr %16, align 8, !tbaa !8
  ret void
}

; Function Attrs: inlinehint mustprogress nounwind uwtable
define linkonce_odr hidden noundef i32 @_ZN2cv8tinyxml27XMLUtil18IsUTF8ContinuationEc(i8 noundef signext %0) #8 comdat align 2 {
  %2 = alloca i8, align 1
  store i8 %0, ptr %2, align 1, !tbaa !18
  %3 = load i8, ptr %2, align 1, !tbaa !18
  %4 = sext i8 %3 to i32
  %5 = and i32 %4, 128
  ret i32 %5
}

; Function Attrs: mustprogress uwtable
define hidden noundef ptr @_ZN2cv8tinyxml27StrPair9ParseTextEPcPKci(ptr noundef nonnull align 8 dereferenceable(24) %0, ptr noundef %1, ptr noundef %2, i32 noundef %3) #3 align 2 {
  %5 = alloca ptr, align 8
  %6 = alloca ptr, align 8
  %7 = alloca ptr, align 8
  %8 = alloca ptr, align 8
  %9 = alloca i32, align 4
  %10 = alloca ptr, align 8
  %11 = alloca i8, align 1
  %12 = alloca i64, align 8
  %13 = alloca i32, align 4
  store ptr %0, ptr %6, align 8, !tbaa !3
  store ptr %1, ptr %7, align 8, !tbaa !14
  store ptr %2, ptr %8, align 8, !tbaa !14
  store i32 %3, ptr %9, align 4, !tbaa !15
  %14 = load ptr, ptr %6, align 8
  call void @llvm.lifetime.start.p0(i64 8, ptr %10) #17
  %15 = load ptr, ptr %7, align 8, !tbaa !14
  store ptr %15, ptr %10, align 8, !tbaa !14
  call void @llvm.lifetime.start.p0(i64 1, ptr %11) #17
  %16 = load ptr, ptr %8, align 8, !tbaa !14
  %17 = load i8, ptr %16, align 1, !tbaa !18
  store i8 %17, ptr %11, align 1, !tbaa !18
  call void @llvm.lifetime.start.p0(i64 8, ptr %12) #17
  %18 = load ptr, ptr %8, align 8, !tbaa !14
  %19 = call i64 @strlen(ptr noundef %18) #18
  store i64 %19, ptr %12, align 8, !tbaa !16
  br label %20

20:                                               ; preds = %44, %4
  %21 = load ptr, ptr %7, align 8, !tbaa !14
  %22 = load i8, ptr %21, align 1, !tbaa !18
  %23 = icmp ne i8 %22, 0
  br i1 %23, label %24, label %47

24:                                               ; preds = %20
  %25 = load ptr, ptr %7, align 8, !tbaa !14
  %26 = load i8, ptr %25, align 1, !tbaa !18
  %27 = sext i8 %26 to i32
  %28 = load i8, ptr %11, align 1, !tbaa !18
  %29 = sext i8 %28 to i32
  %30 = icmp eq i32 %27, %29
  br i1 %30, label %31, label %44

31:                                               ; preds = %24
  %32 = load ptr, ptr %7, align 8, !tbaa !14
  %33 = load ptr, ptr %8, align 8, !tbaa !14
  %34 = load i64, ptr %12, align 8, !tbaa !16
  %35 = call i32 @strncmp(ptr noundef %32, ptr noundef %33, i64 noundef %34) #18
  %36 = icmp eq i32 %35, 0
  br i1 %36, label %37, label %44

37:                                               ; preds = %31
  %38 = load ptr, ptr %10, align 8, !tbaa !14
  %39 = load ptr, ptr %7, align 8, !tbaa !14
  %40 = load i32, ptr %9, align 4, !tbaa !15
  call void @_ZN2cv8tinyxml27StrPair3SetEPcS2_i(ptr noundef nonnull align 8 dereferenceable(24) %14, ptr noundef %38, ptr noundef %39, i32 noundef %40)
  %41 = load ptr, ptr %7, align 8, !tbaa !14
  %42 = load i64, ptr %12, align 8, !tbaa !16
  %43 = getelementptr inbounds nuw i8, ptr %41, i64 %42
  store ptr %43, ptr %5, align 8
  store i32 1, ptr %13, align 4
  br label %48

44:                                               ; preds = %31, %24
  %45 = load ptr, ptr %7, align 8, !tbaa !14
  %46 = getelementptr inbounds nuw i8, ptr %45, i32 1
  store ptr %46, ptr %7, align 8, !tbaa !14
  br label %20, !llvm.loop !19

47:                                               ; preds = %20
  store ptr null, ptr %5, align 8
  store i32 1, ptr %13, align 4
  br label %48

48:                                               ; preds = %47, %37
  call void @llvm.lifetime.end.p0(i64 8, ptr %12) #17
  call void @llvm.lifetime.end.p0(i64 1, ptr %11) #17
  call void @llvm.lifetime.end.p0(i64 8, ptr %10) #17
  %49 = load ptr, ptr %5, align 8
  ret ptr %49
}

; Function Attrs: mustprogress uwtable
define linkonce_odr hidden noundef ptr @_ZN2cv8tinyxml27XMLUtil14SkipWhiteSpaceEPc(ptr noundef %0) #3 comdat align 2 {
  %2 = alloca ptr, align 8
  store ptr %0, ptr %2, align 8, !tbaa !14
  br label %3

3:                                                ; preds = %16, %1
  %4 = load ptr, ptr %2, align 8, !tbaa !14
  %5 = load i8, ptr %4, align 1, !tbaa !18
  %6 = call noundef i32 @_ZN2cv8tinyxml27XMLUtil18IsUTF8ContinuationEc(i8 noundef signext %5)
  %7 = icmp ne i32 %6, 0
  br i1 %7, label %14, label %8

8:                                                ; preds = %3
  %9 = load ptr, ptr %2, align 8, !tbaa !14
  %10 = load i8, ptr %9, align 1, !tbaa !18
  %11 = zext i8 %10 to i32
  %12 = call i32 @isspace(i32 noundef %11) #18
  %13 = icmp ne i32 %12, 0
  br label %14

14:                                               ; preds = %8, %3
  %15 = phi i1 [ false, %3 ], [ %13, %8 ]
  br i1 %15, label %16, label %19

16:                                               ; preds = %14
  %17 = load ptr, ptr %2, align 8, !tbaa !14
  %18 = getelementptr inbounds nuw i8, ptr %17, i32 1
  store ptr %18, ptr %2, align 8, !tbaa !14
  br label %3, !llvm.loop !23

19:                                               ; preds = %14
  %20 = load ptr, ptr %2, align 8, !tbaa !14
  ret ptr %20
}

; Function Attrs: mustprogress uwtable
define hidden noundef ptr @_ZN2cv8tinyxml212XMLAttribute9ParseDeepEPcb(ptr noundef nonnull align 8 dereferenceable(72) %0, ptr noundef %1, i1 noundef zeroext %2) #3 align 2 {
  %4 = alloca ptr, align 8
  %5 = alloca ptr, align 8
  %6 = alloca ptr, align 8
  %7 = alloca i8, align 1
  %8 = alloca [2 x i8], align 1
  store ptr %0, ptr %5, align 8, !tbaa !151
  store ptr %1, ptr %6, align 8, !tbaa !14
  %9 = zext i1 %2 to i8
  store i8 %9, ptr %7, align 1, !tbaa !37
  %10 = load ptr, ptr %5, align 8
  %11 = getelementptr inbounds nuw %"class.cv::tinyxml2::XMLAttribute", ptr %10, i32 0, i32 1
  %12 = load ptr, ptr %6, align 8, !tbaa !14
  %13 = call noundef ptr @_ZN2cv8tinyxml27StrPair9ParseNameEPc(ptr noundef nonnull align 8 dereferenceable(24) %11, ptr noundef %12)
  store ptr %13, ptr %6, align 8, !tbaa !14
  %14 = load ptr, ptr %6, align 8, !tbaa !14
  %15 = icmp ne ptr %14, null
  br i1 %15, label %16, label %20

16:                                               ; preds = %3
  %17 = load ptr, ptr %6, align 8, !tbaa !14
  %18 = load i8, ptr %17, align 1, !tbaa !18
  %19 = icmp ne i8 %18, 0
  br i1 %19, label %21, label %20

20:                                               ; preds = %16, %3
  store ptr null, ptr %4, align 8
  br label %61

21:                                               ; preds = %16
  %22 = load ptr, ptr %6, align 8, !tbaa !14
  %23 = call noundef ptr @_ZN2cv8tinyxml27XMLUtil14SkipWhiteSpaceEPc(ptr noundef %22)
  store ptr %23, ptr %6, align 8, !tbaa !14
  %24 = load ptr, ptr %6, align 8, !tbaa !14
  %25 = icmp ne ptr %24, null
  br i1 %25, label %26, label %31

26:                                               ; preds = %21
  %27 = load ptr, ptr %6, align 8, !tbaa !14
  %28 = load i8, ptr %27, align 1, !tbaa !18
  %29 = sext i8 %28 to i32
  %30 = icmp ne i32 %29, 61
  br i1 %30, label %31, label %32

31:                                               ; preds = %26, %21
  store ptr null, ptr %4, align 8
  br label %61

32:                                               ; preds = %26
  %33 = load ptr, ptr %6, align 8, !tbaa !14
  %34 = getelementptr inbounds nuw i8, ptr %33, i32 1
  store ptr %34, ptr %6, align 8, !tbaa !14
  %35 = load ptr, ptr %6, align 8, !tbaa !14
  %36 = call noundef ptr @_ZN2cv8tinyxml27XMLUtil14SkipWhiteSpaceEPc(ptr noundef %35)
  store ptr %36, ptr %6, align 8, !tbaa !14
  %37 = load ptr, ptr %6, align 8, !tbaa !14
  %38 = load i8, ptr %37, align 1, !tbaa !18
  %39 = sext i8 %38 to i32
  %40 = icmp ne i32 %39, 34
  br i1 %40, label %41, label %47

41:                                               ; preds = %32
  %42 = load ptr, ptr %6, align 8, !tbaa !14
  %43 = load i8, ptr %42, align 1, !tbaa !18
  %44 = sext i8 %43 to i32
  %45 = icmp ne i32 %44, 39
  br i1 %45, label %46, label %47

46:                                               ; preds = %41
  store ptr null, ptr %4, align 8
  br label %61

47:                                               ; preds = %41, %32
  call void @llvm.lifetime.start.p0(i64 2, ptr %8) #17
  %48 = load ptr, ptr %6, align 8, !tbaa !14
  %49 = load i8, ptr %48, align 1, !tbaa !18
  store i8 %49, ptr %8, align 1, !tbaa !18
  %50 = getelementptr inbounds i8, ptr %8, i64 1
  store i8 0, ptr %50, align 1, !tbaa !18
  %51 = load ptr, ptr %6, align 8, !tbaa !14
  %52 = getelementptr inbounds nuw i8, ptr %51, i32 1
  store ptr %52, ptr %6, align 8, !tbaa !14
  %53 = getelementptr inbounds nuw %"class.cv::tinyxml2::XMLAttribute", ptr %10, i32 0, i32 2
  %54 = load ptr, ptr %6, align 8, !tbaa !14
  %55 = getelementptr inbounds [2 x i8], ptr %8, i64 0, i64 0
  %56 = load i8, ptr %7, align 1, !tbaa !37, !range !39, !noundef !40
  %57 = trunc i8 %56 to i1
  %58 = select i1 %57, i32 3, i32 2
  %59 = call noundef ptr @_ZN2cv8tinyxml27StrPair9ParseTextEPcPKci(ptr noundef nonnull align 8 dereferenceable(24) %53, ptr noundef %54, ptr noundef %55, i32 noundef %58)
  store ptr %59, ptr %6, align 8, !tbaa !14
  %60 = load ptr, ptr %6, align 8, !tbaa !14
  store ptr %60, ptr %4, align 8
  call void @llvm.lifetime.end.p0(i64 2, ptr %8) #17
  br label %61

61:                                               ; preds = %47, %46, %31, %20
  %62 = load ptr, ptr %4, align 8
  ret ptr %62
}