; Function Attrs: mustprogress nounwind uwtable
define hidden noundef ptr @_ZN2cv8tinyxml212XMLAttribute9ParseDeepEPcb(ptr noundef nonnull align 8 captures(none) dereferenceable(72) %0, ptr noundef %1, i1 noundef zeroext %2) local_unnamed_addr #0 align 2 {
  %4 = alloca [2 x i8], align 1
  %5 = getelementptr inbounds nuw i8, ptr %0, i64 8
  %6 = tail call noundef ptr @_ZN2cv8tinyxml27StrPair9ParseNameEPc(ptr noundef nonnull align 8 dereferenceable(24) %5, ptr noundef %1)
  %.not = icmp eq ptr %6, null
  br i1 %.not, label %_ZN2cv8tinyxml27XMLUtil14SkipWhiteSpaceEPc.exit.thread, label %7

7:                                                ; preds = %3
  %8 = load i8, ptr %6, align 1, !tbaa !12
  %or.cond = icmp sgt i8 %8, 0
  br i1 %or.cond, label %.lr.ph.i, label %_ZN2cv8tinyxml27XMLUtil14SkipWhiteSpaceEPc.exit.thread

.lr.ph.i:                                         ; preds = %7, %11
  %.pr = phi i8 [ %13, %11 ], [ %8, %7 ]
  %.06.i = phi ptr [ %12, %11 ], [ %6, %7 ]
  %9 = zext nneg i8 %.pr to i32
  %10 = tail call i32 @isspace(i32 noundef %9) #26
  %.not4.i = icmp eq i32 %10, 0
  br i1 %.not4.i, label %_ZN2cv8tinyxml27XMLUtil14SkipWhiteSpaceEPc.exit, label %11

11:                                               ; preds = %.lr.ph.i
  %12 = getelementptr inbounds nuw i8, ptr %.06.i, i64 1
  %13 = load i8, ptr %12, align 1, !tbaa !12
  %.not.i = icmp sgt i8 %13, -1
  br i1 %.not.i, label %.lr.ph.i, label %_ZN2cv8tinyxml27XMLUtil14SkipWhiteSpaceEPc.exit.thread, !llvm.loop !16

_ZN2cv8tinyxml27XMLUtil14SkipWhiteSpaceEPc.exit:  ; preds = %.lr.ph.i
  %.not21 = icmp eq i8 %.pr, 61
  br i1 %.not21, label %14, label %_ZN2cv8tinyxml27XMLUtil14SkipWhiteSpaceEPc.exit.thread

14:                                               ; preds = %_ZN2cv8tinyxml27XMLUtil14SkipWhiteSpaceEPc.exit
  %15 = getelementptr inbounds nuw i8, ptr %.06.i, i64 1
  %16 = load i8, ptr %15, align 1, !tbaa !12
  %.not5.i24 = icmp sgt i8 %16, -1
  br i1 %.not5.i24, label %.lr.ph.i26, label %_ZN2cv8tinyxml27XMLUtil14SkipWhiteSpaceEPc.exit30

.lr.ph.i26:                                       ; preds = %14, %19
  %.pr35 = phi i8 [ %21, %19 ], [ %16, %14 ]
  %.06.i27 = phi ptr [ %20, %19 ], [ %15, %14 ]
  %17 = zext nneg i8 %.pr35 to i32
  %18 = tail call i32 @isspace(i32 noundef %17) #26
  %.not4.i28 = icmp eq i32 %18, 0
  br i1 %.not4.i28, label %_ZN2cv8tinyxml27XMLUtil14SkipWhiteSpaceEPc.exit30, label %19

19:                                               ; preds = %.lr.ph.i26
  %20 = getelementptr inbounds nuw i8, ptr %.06.i27, i64 1
  %21 = load i8, ptr %20, align 1, !tbaa !12
  %.not.i29 = icmp sgt i8 %21, -1
  br i1 %.not.i29, label %.lr.ph.i26, label %_ZN2cv8tinyxml27XMLUtil14SkipWhiteSpaceEPc.exit30, !llvm.loop !16

_ZN2cv8tinyxml27XMLUtil14SkipWhiteSpaceEPc.exit30: ; preds = %19, %.lr.ph.i26, %14
  %22 = phi i8 [ %16, %14 ], [ %21, %19 ], [ %.pr35, %.lr.ph.i26 ]
  %.0.lcssa.i25 = phi ptr [ %15, %14 ], [ %20, %19 ], [ %.06.i27, %.lr.ph.i26 ]
  switch i8 %22, label %_ZN2cv8tinyxml27XMLUtil14SkipWhiteSpaceEPc.exit.thread [
    i8 34, label %23
    i8 39, label %23
  ]

23:                                               ; preds = %_ZN2cv8tinyxml27XMLUtil14SkipWhiteSpaceEPc.exit30, %_ZN2cv8tinyxml27XMLUtil14SkipWhiteSpaceEPc.exit30
  call void @llvm.lifetime.start.p0(i64 2, ptr nonnull %4) #24
  store i8 %22, ptr %4, align 1, !tbaa !12
  %24 = getelementptr inbounds nuw i8, ptr %4, i64 1
  store i8 0, ptr %24, align 1, !tbaa !12
  %25 = getelementptr inbounds nuw i8, ptr %.0.lcssa.i25, i64 1
  %26 = getelementptr inbounds nuw i8, ptr %0, i64 32
  %27 = call i64 @strlen(ptr noundef nonnull readonly dereferenceable(1) %4) #26
  %28 = load i8, ptr %25, align 1, !tbaa !12
  %.not19.i = icmp eq i8 %28, 0
  br i1 %.not19.i, label %_ZN2cv8tinyxml27StrPair9ParseTextEPcPKci.exit, label %.lr.ph.i31

.lr.ph.i31:                                       ; preds = %23, %46
  %29 = phi i8 [ %48, %46 ], [ %28, %23 ]
  %.01620.i = phi ptr [ %47, %46 ], [ %25, %23 ]
  %30 = icmp eq i8 %29, %22
  br i1 %30, label %31, label %46

31:                                               ; preds = %.lr.ph.i31
  %32 = call i32 @strncmp(ptr noundef nonnull %.01620.i, ptr noundef nonnull readonly %4, i64 noundef %27) #26
  %33 = icmp eq i32 %32, 0
  br i1 %33, label %34, label %46

34:                                               ; preds = %31
  %35 = load i32, ptr %26, align 8, !tbaa !3
  %36 = and i32 %35, 512
  %.not.i.i.i = icmp eq i32 %36, 0
  br i1 %.not.i.i.i, label %_ZN2cv8tinyxml27StrPair3SetEPcS2_i.exit.i, label %37

37:                                               ; preds = %34
  %38 = getelementptr inbounds nuw i8, ptr %0, i64 40
  %39 = load ptr, ptr %38, align 8, !tbaa !10
  %40 = icmp eq ptr %39, null
  br i1 %40, label %_ZN2cv8tinyxml27StrPair3SetEPcS2_i.exit.i, label %41

41:                                               ; preds = %37
  tail call void @_ZdaPv(ptr noundef nonnull %39) #23
  br label %_ZN2cv8tinyxml27StrPair3SetEPcS2_i.exit.i

_ZN2cv8tinyxml27StrPair3SetEPcS2_i.exit.i:        ; preds = %41, %37, %34
  %42 = getelementptr inbounds nuw i8, ptr %0, i64 40
  store ptr %25, ptr %42, align 8, !tbaa !10
  %43 = getelementptr inbounds nuw i8, ptr %0, i64 48
  store ptr %.01620.i, ptr %43, align 8, !tbaa !11
  %44 = select i1 %2, i32 259, i32 258
  store i32 %44, ptr %26, align 8, !tbaa !3
  %45 = getelementptr inbounds nuw i8, ptr %.01620.i, i64 %27
  br label %_ZN2cv8tinyxml27StrPair9ParseTextEPcPKci.exit

46:                                               ; preds = %31, %.lr.ph.i31
  %47 = getelementptr inbounds nuw i8, ptr %.01620.i, i64 1
  %48 = load i8, ptr %47, align 1, !tbaa !12
  %.not.i32 = icmp eq i8 %48, 0
  br i1 %.not.i32, label %_ZN2cv8tinyxml27StrPair9ParseTextEPcPKci.exit, label %.lr.ph.i31, !llvm.loop !13

_ZN2cv8tinyxml27StrPair9ParseTextEPcPKci.exit:    ; preds = %46, %23, %_ZN2cv8tinyxml27StrPair3SetEPcS2_i.exit.i
  %.0.i = phi ptr [ %45, %_ZN2cv8tinyxml27StrPair3SetEPcS2_i.exit.i ], [ null, %23 ], [ null, %46 ]
  call void @llvm.lifetime.end.p0(i64 2, ptr nonnull %4) #24
  br label %_ZN2cv8tinyxml27XMLUtil14SkipWhiteSpaceEPc.exit.thread

_ZN2cv8tinyxml27XMLUtil14SkipWhiteSpaceEPc.exit.thread: ; preds = %11, %_ZN2cv8tinyxml27XMLUtil14SkipWhiteSpaceEPc.exit30, %_ZN2cv8tinyxml27XMLUtil14SkipWhiteSpaceEPc.exit, %3, %7, %_ZN2cv8tinyxml27StrPair9ParseTextEPcPKci.exit
  %.0 = phi ptr [ %.0.i, %_ZN2cv8tinyxml27StrPair9ParseTextEPcPKci.exit ], [ null, %7 ], [ null, %3 ], [ null, %_ZN2cv8tinyxml27XMLUtil14SkipWhiteSpaceEPc.exit ], [ null, %_ZN2cv8tinyxml27XMLUtil14SkipWhiteSpaceEPc.exit30 ], [ null, %11 ]
  ret ptr %.0
}